target datalayout = "e-m:e-p270:32:32-p271:32:32-p272:64:64-i64:64-i128:128-f80:128-n8:16:32:64-S128"
target triple = "x86_64-pc-linux-gnu"

%struct.arj_decode_tag = type { ptr, ptr, i64, ptr, ptr, i16, i16, i32, i32, i16, i16, [1019 x i16], [1019 x i16], [510 x i8], [4096 x i16], [19 x i8], i8, [256 x i16], i32 }

@.str.38 = private unnamed_addr constant [24 x i8] c"UNARJ: bounds exceeded\0A\00", align 1

; Function Attrs: nounwind uwtable
define internal zeroext i16 @arj_getbits(ptr noundef %0, i32 noundef %1) #0 {
  %3 = alloca ptr, align 8
  %4 = alloca i32, align 4
  %5 = alloca i16, align 2
  store ptr %0, ptr %3, align 8, !tbaa !59
  store i32 %1, ptr %4, align 4, !tbaa !17
  call void @llvm.lifetime.start.p0(i64 2, ptr %5) #8
  %6 = load ptr, ptr %3, align 8, !tbaa !59
  %7 = getelementptr inbounds nuw %struct.arj_decode_tag, ptr %6, i32 0, i32 6
  %8 = load i16, ptr %7, align 2, !tbaa !63
  %9 = zext i16 %8 to i32
  %10 = load i32, ptr %4, align 4, !tbaa !17
  %11 = sub nsw i32 16, %10
  %12 = ashr i32 %9, %11
  %13 = trunc i32 %12 to i16
  store i16 %13, ptr %5, align 2, !tbaa !19
  %14 = load ptr, ptr %3, align 8, !tbaa !59
  %15 = load i32, ptr %4, align 4, !tbaa !17
  %16 = call i32 @fill_buf(ptr noundef %14, i32 noundef %15)
  %17 = load i16, ptr %5, align 2, !tbaa !19
  call void @llvm.lifetime.end.p0(i64 2, ptr %5) #8
  ret i16 %17
}

; Function Attrs: nounwind uwtable
define internal i32 @read_pt_len(ptr noundef %0, i32 noundef %1, i32 noundef %2, i32 noundef %3) #0 {
  %5 = alloca i32, align 4
  %6 = alloca ptr, align 8
  %7 = alloca i32, align 4
  %8 = alloca i32, align 4
  %9 = alloca i32, align 4
  %10 = alloca i32, align 4
  %11 = alloca i32, align 4
  %12 = alloca i16, align 2
  %13 = alloca i16, align 2
  %14 = alloca i32, align 4
  store ptr %0, ptr %6, align 8, !tbaa !59
  store i32 %1, ptr %7, align 4, !tbaa !17
  store i32 %2, ptr %8, align 4, !tbaa !17
  store i32 %3, ptr %9, align 4, !tbaa !17
  call void @llvm.lifetime.start.p0(i64 4, ptr %10) #8
  call void @llvm.lifetime.start.p0(i64 4, ptr %11) #8
  call void @llvm.lifetime.start.p0(i64 2, ptr %12) #8
  call void @llvm.lifetime.start.p0(i64 2, ptr %13) #8
  %15 = load ptr, ptr %6, align 8, !tbaa !59
  %16 = load i32, ptr %8, align 4, !tbaa !17
  %17 = call zeroext i16 @arj_getbits(ptr noundef %15, i32 noundef %16)
  %18 = zext i16 %17 to i32
  store i32 %18, ptr %11, align 4, !tbaa !17
  %19 = load i32, ptr %11, align 4, !tbaa !17
  %20 = icmp eq i32 %19, 0
  br i1 %20, label %21, label %59

21:                                               ; preds = %4
  %22 = load i32, ptr %7, align 4, !tbaa !17
  %23 = icmp sgt i32 %22, 19
  br i1 %23, label %24, label %27

24:                                               ; preds = %21
  call void (ptr, ...) @cli_dbgmsg(ptr noundef @.str.38)
  %25 = load ptr, ptr %6, align 8, !tbaa !59
  %26 = getelementptr inbounds nuw %struct.arj_decode_tag, ptr %25, i32 0, i32 18
  store i32 7, ptr %26, align 8, !tbaa !58
  store i32 7, ptr %5, align 4
  store i32 1, ptr %14, align 4
  br label %192

27:                                               ; preds = %21
  %28 = load ptr, ptr %6, align 8, !tbaa !59
  %29 = load i32, ptr %8, align 4, !tbaa !17
  %30 = call zeroext i16 @arj_getbits(ptr noundef %28, i32 noundef %29)
  store i16 %30, ptr %12, align 2, !tbaa !19
  store i32 0, ptr %10, align 4, !tbaa !17
  br label %31

31:                                               ; preds = %41, %27
  %32 = load i32, ptr %10, align 4, !tbaa !17
  %33 = load i32, ptr %7, align 4, !tbaa !17
  %34 = icmp slt i32 %32, %33
  br i1 %34, label %35, label %44

35:                                               ; preds = %31
  %36 = load ptr, ptr %6, align 8, !tbaa !59
  %37 = getelementptr inbounds nuw %struct.arj_decode_tag, ptr %36, i32 0, i32 15
  %38 = load i32, ptr %10, align 4, !tbaa !17
  %39 = sext i32 %38 to i64
  %40 = getelementptr inbounds [19 x i8], ptr %37, i64 0, i64 %39
  store i8 0, ptr %40, align 1, !tbaa !35
  br label %41

41:                                               ; preds = %35
  %42 = load i32, ptr %10, align 4, !tbaa !17
  %43 = add nsw i32 %42, 1
  store i32 %43, ptr %10, align 4, !tbaa !17
  br label %31

44:                                               ; preds = %31
  store i32 0, ptr %10, align 4, !tbaa !17
  br label %45

45:                                               ; preds = %55, %44
  %46 = load i32, ptr %10, align 4, !tbaa !17
  %47 = icmp slt i32 %46, 256
  br i1 %47, label %48, label %58

48:                                               ; preds = %45
  %49 = load i16, ptr %12, align 2, !tbaa !19
  %50 = load ptr, ptr %6, align 8, !tbaa !59
  %51 = getelementptr inbounds nuw %struct.arj_decode_tag, ptr %50, i32 0, i32 17
  %52 = load i32, ptr %10, align 4, !tbaa !17
  %53 = sext i32 %52 to i64
  %54 = getelementptr inbounds [256 x i16], ptr %51, i64 0, i64 %53
  store i16 %49, ptr %54, align 2, !tbaa !19
  br label %55

55:                                               ; preds = %48
  %56 = load i32, ptr %10, align 4, !tbaa !17
  %57 = add nsw i32 %56, 1
  store i32 %57, ptr %10, align 4, !tbaa !17
  br label %45

58:                                               ; preds = %45
  br label %191

59:                                               ; preds = %4
  store i32 0, ptr %10, align 4, !tbaa !17
  br label %60

60:                                               ; preds = %160, %59
  %61 = load i32, ptr %10, align 4, !tbaa !17
  %62 = load i32, ptr %11, align 4, !tbaa !17
  %63 = icmp slt i32 %61, %62
  br i1 %63, label %64, label %67

64:                                               ; preds = %60
  %65 = load i32, ptr %10, align 4, !tbaa !17
  %66 = icmp slt i32 %65, 19
  br label %67

67:                                               ; preds = %64, %60
  %68 = phi i1 [ false, %60 ], [ %66, %64 ]
  br i1 %68, label %69, label %161

69:                                               ; preds = %67
  %70 = load ptr, ptr %6, align 8, !tbaa !59
  %71 = getelementptr inbounds nuw %struct.arj_decode_tag, ptr %70, i32 0, i32 6
  %72 = load i16, ptr %71, align 2, !tbaa !63
  %73 = zext i16 %72 to i32
  %74 = ashr i32 %73, 13
  %75 = trunc i32 %74 to i16
  store i16 %75, ptr %12, align 2, !tbaa !19
  %76 = load i16, ptr %12, align 2, !tbaa !19
  %77 = sext i16 %76 to i32
  %78 = icmp eq i32 %77, 7
  br i1 %78, label %79, label %97

79:                                               ; preds = %69
  store i16 4096, ptr %13, align 2, !tbaa !19
  br label %80

80:                                               ; preds = %89, %79
  %81 = load i16, ptr %13, align 2, !tbaa !19
  %82 = zext i16 %81 to i32
  %83 = load ptr, ptr %6, align 8, !tbaa !59
  %84 = getelementptr inbounds nuw %struct.arj_decode_tag, ptr %83, i32 0, i32 6
  %85 = load i16, ptr %84, align 2, !tbaa !63
  %86 = zext i16 %85 to i32
  %87 = and i32 %82, %86
  %88 = icmp ne i32 %87, 0
  br i1 %88, label %89, label %96

89:                                               ; preds = %80
  %90 = load i16, ptr %13, align 2, !tbaa !19
  %91 = zext i16 %90 to i32
  %92 = ashr i32 %91, 1
  %93 = trunc i32 %92 to i16
  store i16 %93, ptr %13, align 2, !tbaa !19
  %94 = load i16, ptr %12, align 2, !tbaa !19
  %95 = add i16 %94, 1
  store i16 %95, ptr %12, align 2, !tbaa !19
  br label %80

96:                                               ; preds = %80
  br label %97

97:                                               ; preds = %96, %69
  %98 = load ptr, ptr %6, align 8, !tbaa !59
  %99 = load i16, ptr %12, align 2, !tbaa !19
  %100 = sext i16 %99 to i32
  %101 = icmp slt i32 %100, 7
  br i1 %101, label %102, label %103

102:                                              ; preds = %97
  br label %107

103:                                              ; preds = %97
  %104 = load i16, ptr %12, align 2, !tbaa !19
  %105 = sext i16 %104 to i32
  %106 = sub nsw i32 %105, 3
  br label %107

107:                                              ; preds = %103, %102
  %108 = phi i32 [ 3, %102 ], [ %106, %103 ]
  %109 = call i32 @fill_buf(ptr noundef %98, i32 noundef %108)
  %110 = load ptr, ptr %6, align 8, !tbaa !59
  %111 = getelementptr inbounds nuw %struct.arj_decode_tag, ptr %110, i32 0, i32 18
  %112 = load i32, ptr %111, align 8, !tbaa !58
  %113 = icmp ne i32 %112, 0
  br i1 %113, label %114, label %118

114:                                              ; preds = %107
  %115 = load ptr, ptr %6, align 8, !tbaa !59
  %116 = getelementptr inbounds nuw %struct.arj_decode_tag, ptr %115, i32 0, i32 18
  %117 = load i32, ptr %116, align 8, !tbaa !58
  store i32 %117, ptr %5, align 4
  store i32 1, ptr %14, align 4
  br label %192

118:                                              ; preds = %107
  %119 = load i16, ptr %12, align 2, !tbaa !19
  %120 = trunc i16 %119 to i8
  %121 = load ptr, ptr %6, align 8, !tbaa !59
  %122 = getelementptr inbounds nuw %struct.arj_decode_tag, ptr %121, i32 0, i32 15
  %123 = load i32, ptr %10, align 4, !tbaa !17
  %124 = add nsw i32 %123, 1
  store i32 %124, ptr %10, align 4, !tbaa !17
  %125 = sext i32 %123 to i64
  %126 = getelementptr inbounds [19 x i8], ptr %122, i64 0, i64 %125
  store i8 %120, ptr %126, align 1, !tbaa !35
  %127 = load i32, ptr %10, align 4, !tbaa !17
  %128 = load i32, ptr %9, align 4, !tbaa !17
  %129 = icmp eq i32 %127, %128
  br i1 %129, label %130, label %160

130:                                              ; preds = %118
  %131 = load ptr, ptr %6, align 8, !tbaa !59
  %132 = call zeroext i16 @arj_getbits(ptr noundef %131, i32 noundef 2)
  store i16 %132, ptr %12, align 2, !tbaa !19
  %133 = load ptr, ptr %6, align 8, !tbaa !59
  %134 = getelementptr inbounds nuw %struct.arj_decode_tag, ptr %133, i32 0, i32 18
  %135 = load i32, ptr %134, align 8, !tbaa !58
  %136 = icmp ne i32 %135, 0
  br i1 %136, label %137, label %141

137:                                              ; preds = %130
  %138 = load ptr, ptr %6, align 8, !tbaa !59
  %139 = getelementptr inbounds nuw %struct.arj_decode_tag, ptr %138, i32 0, i32 18
  %140 = load i32, ptr %139, align 8, !tbaa !58
  store i32 %140, ptr %5, align 4
  store i32 1, ptr %14, align 4
  br label %192

141:                                              ; preds = %130
  br label %142

142:                                              ; preds = %152, %141
  %143 = load i16, ptr %12, align 2, !tbaa !19
  %144 = add i16 %143, -1
  store i16 %144, ptr %12, align 2, !tbaa !19
  %145 = sext i16 %144 to i32
  %146 = icmp sge i32 %145, 0
  br i1 %146, label %147, label %150

147:                                              ; preds = %142
  %148 = load i32, ptr %10, align 4, !tbaa !17
  %149 = icmp slt i32 %148, 19
  br label %150

150:                                              ; preds = %147, %142
  %151 = phi i1 [ false, %142 ], [ %149, %147 ]
  br i1 %151, label %152, label %159

152:                                              ; preds = %150
  %153 = load ptr, ptr %6, align 8, !tbaa !59
  %154 = getelementptr inbounds nuw %struct.arj_decode_tag, ptr %153, i32 0, i32 15
  %155 = load i32, ptr %10, align 4, !tbaa !17
  %156 = add nsw i32 %155, 1
  store i32 %156, ptr %10, align 4, !tbaa !17
  %157 = sext i32 %155 to i64
  %158 = getelementptr inbounds [19 x i8], ptr %154, i64 0, i64 %157
  store i8 0, ptr %158, align 1, !tbaa !35
  br label %142

159:                                              ; preds = %150
  br label %160

160:                                              ; preds = %159, %118
  br label %60

161:                                              ; preds = %67
  br label %162

162:                                              ; preds = %171, %161
  %163 = load i32, ptr %10, align 4, !tbaa !17
  %164 = load i32, ptr %7, align 4, !tbaa !17
  %165 = icmp slt i32 %163, %164
  br i1 %165, label %166, label %169

166:                                              ; preds = %162
  %167 = load i32, ptr %10, align 4, !tbaa !17
  %168 = icmp slt i32 %167, 19
  br label %169

169:                                              ; preds = %166, %162
  %170 = phi i1 [ false, %162 ], [ %168, %166 ]
  br i1 %170, label %171, label %178

171:                                              ; preds = %169
  %172 = load ptr, ptr %6, align 8, !tbaa !59
  %173 = getelementptr inbounds nuw %struct.arj_decode_tag, ptr %172, i32 0, i32 15
  %174 = load i32, ptr %10, align 4, !tbaa !17
  %175 = add nsw i32 %174, 1
  store i32 %175, ptr %10, align 4, !tbaa !17
  %176 = sext i32 %174 to i64
  %177 = getelementptr inbounds [19 x i8], ptr %173, i64 0, i64 %176
  store i8 0, ptr %177, align 1, !tbaa !35
  br label %162

178:                                              ; preds = %169
  %179 = load ptr, ptr %6, align 8, !tbaa !59
  %180 = load i32, ptr %7, align 4, !tbaa !17
  %181 = load ptr, ptr %6, align 8, !tbaa !59
  %182 = getelementptr inbounds nuw %struct.arj_decode_tag, ptr %181, i32 0, i32 15
  %183 = getelementptr inbounds [19 x i8], ptr %182, i64 0, i64 0
  %184 = load ptr, ptr %6, align 8, !tbaa !59
  %185 = getelementptr inbounds nuw %struct.arj_decode_tag, ptr %184, i32 0, i32 17
  %186 = getelementptr inbounds [256 x i16], ptr %185, i64 0, i64 0
  %187 = call i32 @make_table(ptr noundef %179, i32 noundef %180, ptr noundef %183, i32 noundef 8, ptr noundef %186, i32 noundef 256)
  %188 = icmp ne i32 %187, 0
  br i1 %188, label %189, label %190

189:                                              ; preds = %178
  store i32 7, ptr %5, align 4
  store i32 1, ptr %14, align 4
  br label %192

190:                                              ; preds = %178
  br label %191

191:                                              ; preds = %190, %58
  store i32 0, ptr %5, align 4
  store i32 1, ptr %14, align 4
  br label %192

192:                                              ; preds = %191, %189, %137, %114, %24
  call void @llvm.lifetime.end.p0(i64 2, ptr %13) #8
  call void @llvm.lifetime.end.p0(i64 2, ptr %12) #8
  call void @llvm.lifetime.end.p0(i64 4, ptr %11) #8
  call void @llvm.lifetime.end.p0(i64 4, ptr %10) #8
  %193 = load i32, ptr %5, align 4
  ret i32 %193
}