; Function Attrs: nounwind uwtable
define internal fastcc void @read_pt_len(ptr noundef nonnull captures(none) %0, i32 noundef range(i32 -1, 4) %1) unnamed_addr #0 {
  %3 = getelementptr inbounds nuw i8, ptr %0, i64 42
  %4 = load i16, ptr %3, align 2, !tbaa !53
  tail call fastcc void @fill_buf(ptr noundef nonnull %0, i32 noundef 5)
  %5 = icmp ult i16 %4, 2048
  br i1 %5, label %.preheader, label %.lr.ph81

.lr.ph81:                                         ; preds = %2
  %6 = lshr i16 %4, 11
  %7 = tail call i16 @llvm.umin.i16(i16 %6, i16 19)
  %8 = zext nneg i16 %7 to i32
  %9 = getelementptr inbounds nuw i8, ptr %0, i64 13368
  %10 = getelementptr inbounds nuw i8, ptr %0, i64 12834
  %scevgep = getelementptr i8, ptr %0, i64 12835
  br label %23

.preheader:                                       ; preds = %2
  %11 = load i16, ptr %3, align 2, !tbaa !53
  tail call fastcc void @fill_buf(ptr noundef nonnull %0, i32 noundef 5)
  %12 = getelementptr inbounds nuw i8, ptr %0, i64 12834
  tail call void @llvm.memset.p0.i64(ptr noundef nonnull align 1 dereferenceable(19) %12, i8 0, i64 19, i1 false), !tbaa !29
  %13 = lshr i16 %11, 11
  %14 = getelementptr inbounds nuw i8, ptr %0, i64 12854
  br label %15

15:                                               ; preds = %.preheader, %15
  %indvars.iv97 = phi i64 [ 0, %.preheader ], [ %indvars.iv.next98, %15 ]
  %16 = getelementptr inbounds nuw [256 x i16], ptr %14, i64 0, i64 %indvars.iv97
  store i16 %13, ptr %16, align 2, !tbaa !18
  %indvars.iv.next98 = add nuw nsw i64 %indvars.iv97, 1
  %exitcond.not = icmp eq i64 %indvars.iv.next98, 256
  br i1 %exitcond.not, label %.loopexit72, label %15

.preheader66:                                     ; preds = %.loopexit68
  %17 = icmp slt i32 %.3, 19
  br i1 %17, label %.lr.ph84, label %._crit_edge

.lr.ph84:                                         ; preds = %.preheader66
  %18 = sext i32 %.3 to i64
  %19 = getelementptr i8, ptr %0, i64 %18
  %scevgep90 = getelementptr i8, ptr %19, i64 12834
  %20 = sub i32 18, %.3
  %21 = zext i32 %20 to i64
  %22 = add nuw nsw i64 %21, 1
  tail call void @llvm.memset.p0.i64(ptr noundef nonnull align 1 dereferenceable(1) %scevgep90, i8 0, i64 %22, i1 false), !tbaa !29
  br label %._crit_edge

23:                                               ; preds = %.lr.ph81, %.loopexit68
  %.25680 = phi i32 [ 0, %.lr.ph81 ], [ %.3, %.loopexit68 ]
  %24 = load i16, ptr %3, align 2, !tbaa !53
  %25 = lshr i16 %24, 13
  %26 = icmp eq i16 %25, 7
  br i1 %26, label %.preheader69, label %.loopexit70.thread

.preheader69:                                     ; preds = %23
  %27 = zext i16 %24 to i32
  %28 = and i32 %27, 4096
  %.not6374 = icmp eq i32 %28, 0
  br i1 %.not6374, label %.loopexit70.thread, label %.lr.ph

.lr.ph:                                           ; preds = %.preheader69, %.lr.ph
  %.076 = phi i32 [ %29, %.lr.ph ], [ 4096, %.preheader69 ]
  %.175 = phi i16 [ %30, %.lr.ph ], [ 7, %.preheader69 ]
  %29 = lshr i32 %.076, 1
  %30 = add i16 %.175, 1
  %31 = and i32 %29, %27
  %.not63 = icmp eq i32 %31, 0
  br i1 %.not63, label %.loopexit70, label %.lr.ph

.loopexit70:                                      ; preds = %.lr.ph
  %32 = sext i16 %30 to i32
  %33 = icmp slt i16 %30, 7
  %34 = add nsw i32 %32, -3
  %spec.select = select i1 %33, i32 3, i32 %34
  br label %.loopexit70.thread

.loopexit70.thread:                               ; preds = %.loopexit70, %.preheader69, %23
  %.052102 = phi i16 [ %25, %23 ], [ 7, %.preheader69 ], [ %30, %.loopexit70 ]
  %35 = phi i32 [ 3, %23 ], [ 4, %.preheader69 ], [ %spec.select, %.loopexit70 ]
  tail call fastcc void @fill_buf(ptr noundef %0, i32 noundef %35)
  %36 = load i32, ptr %9, align 8, !tbaa !59
  %.not64 = icmp eq i32 %36, 0
  br i1 %.not64, label %37, label %.loopexit72

37:                                               ; preds = %.loopexit70.thread
  %38 = trunc i16 %.052102 to i8
  %39 = add nsw i32 %.25680, 1
  %40 = sext i32 %.25680 to i64
  %41 = getelementptr inbounds [19 x i8], ptr %10, i64 0, i64 %40
  store i8 %38, ptr %41, align 1, !tbaa !29
  %42 = icmp eq i32 %39, %1
  br i1 %42, label %43, label %.loopexit68

43:                                               ; preds = %37
  %44 = load i16, ptr %3, align 2, !tbaa !53
  tail call fastcc void @fill_buf(ptr noundef nonnull %0, i32 noundef 2)
  %45 = load i32, ptr %9, align 8, !tbaa !59
  %.not65 = icmp eq i32 %45, 0
  br i1 %.not65, label %.preheader67, label %.loopexit72

.preheader67:                                     ; preds = %43
  %46 = icmp ugt i16 %44, 16383
  %47 = icmp slt i32 %.25680, 18
  %48 = and i1 %46, %47
  br i1 %48, label %.lr.ph78.preheader, label %.loopexit68

.lr.ph78.preheader:                               ; preds = %.preheader67
  %49 = lshr i16 %44, 14
  %scevgep89 = getelementptr i8, ptr %scevgep, i64 %40
  %50 = add nsw i16 %49, -1
  %51 = zext nneg i16 %50 to i64
  %52 = sub i32 17, %.25680
  %53 = zext i32 %52 to i64
  %umin = tail call i64 @llvm.umin.i64(i64 %51, i64 %53)
  %54 = add nuw nsw i64 %umin, 1
  tail call void @llvm.memset.p0.i64(ptr noundef nonnull align 1 dereferenceable(1) %scevgep89, i8 0, i64 %54, i1 false), !tbaa !29
  %55 = add nsw i64 %40, 1
  br label %.lr.ph78

.lr.ph78:                                         ; preds = %.lr.ph78.preheader, %.lr.ph78
  %indvars.iv = phi i64 [ %55, %.lr.ph78.preheader ], [ %indvars.iv.next, %.lr.ph78 ]
  %.in = phi i16 [ %49, %.lr.ph78.preheader ], [ %56, %.lr.ph78 ]
  %56 = add nsw i16 %.in, -1
  %indvars.iv.next = add nsw i64 %indvars.iv, 1
  %57 = icmp samesign ugt i16 %.in, 1
  %58 = icmp slt i64 %indvars.iv, 18
  %59 = and i1 %57, %58
  br i1 %59, label %.lr.ph78, label %.loopexit68.loopexit

.loopexit68.loopexit:                             ; preds = %.lr.ph78
  %60 = trunc nsw i64 %indvars.iv.next to i32
  br label %.loopexit68

.loopexit68:                                      ; preds = %.loopexit68.loopexit, %.preheader67, %37
  %.3 = phi i32 [ %39, %37 ], [ %1, %.preheader67 ], [ %60, %.loopexit68.loopexit ]
  %61 = icmp slt i32 %.3, %8
  br i1 %61, label %23, label %.preheader66

._crit_edge:                                      ; preds = %.lr.ph84, %.preheader66
  %62 = getelementptr inbounds nuw i8, ptr %0, i64 12834
  %63 = getelementptr inbounds nuw i8, ptr %0, i64 12854
  %64 = tail call fastcc i32 @make_table(ptr noundef %0, i32 noundef 19, ptr noundef %62, i32 noundef 8, ptr noundef %63, i32 noundef 256)
  br label %.loopexit72

.loopexit72:                                      ; preds = %43, %.loopexit70.thread, %15, %._crit_edge
  ret void
}